; Function Attrs: nounwind uwtable
define ptr @l_Array_forIn_x27Unsafe_loop___at___private_Lean_Elab_Inductive_0__Lean_Elab_Command_reorderCtorArgs___spec__4___lambda__5(ptr noundef %0, ptr noundef %1, ptr noundef %2, ptr noundef %3, ptr readnone captures(none) %4, ptr readnone captures(none) %5, ptr noundef %6, ptr readnone captures(none) %7, ptr readnone captures(none) %8, ptr noundef %9) local_unnamed_addr #0 {
  %11 = tail call ptr @l_Lean_LocalDecl_userName(ptr noundef %0) #6
  %12 = tail call zeroext i8 @l_Lean_Name_hasMacroScopes(ptr noundef %11) #6
  %13 = ptrtoint ptr %11 to i64
  %14 = and i64 %13, 1
  %.not = icmp eq i64 %14, 0
  br i1 %.not, label %15, label %lean_dec.exit29

15:                                               ; preds = %10
  %16 = load i32, ptr %11, align 4, !tbaa !4
  %17 = icmp sgt i32 %16, 1
  br i1 %17, label %18, label %20, !prof !9

18:                                               ; preds = %15
  %19 = add nsw i32 %16, -1
  store i32 %19, ptr %11, align 4, !tbaa !4
  br label %lean_dec.exit29

20:                                               ; preds = %15
  %.not.i = icmp eq i32 %16, 0
  br i1 %.not.i, label %lean_dec.exit29, label %21

21:                                               ; preds = %20
  tail call void @lean_dec_ref_cold(ptr noundef nonnull %11) #6
  br label %lean_dec.exit29

lean_dec.exit29:                                  ; preds = %21, %20, %18, %10
  %22 = icmp eq i8 %12, 0
  br i1 %22, label %23, label %59

23:                                               ; preds = %lean_dec.exit29
  %24 = ptrtoint ptr %1 to i64
  %25 = and i64 %24, 1
  %.not36 = icmp eq i64 %25, 0
  br i1 %.not36, label %26, label %lean_dec.exit28

26:                                               ; preds = %23
  %27 = load i32, ptr %1, align 4, !tbaa !4
  %28 = icmp sgt i32 %27, 1
  br i1 %28, label %29, label %31, !prof !9

29:                                               ; preds = %26
  %30 = add nsw i32 %27, -1
  store i32 %30, ptr %1, align 4, !tbaa !4
  br label %lean_dec.exit28

31:                                               ; preds = %26
  %.not.i30 = icmp eq i32 %27, 0
  br i1 %.not.i30, label %lean_dec.exit28, label %32

32:                                               ; preds = %31
  tail call void @lean_dec_ref_cold(ptr noundef nonnull %1) #6
  br label %lean_dec.exit28

lean_dec.exit28:                                  ; preds = %32, %31, %29, %23
  %33 = ptrtoint ptr %0 to i64
  %34 = and i64 %33, 1
  %.not37 = icmp eq i64 %34, 0
  br i1 %.not37, label %35, label %lean_dec.exit

35:                                               ; preds = %lean_dec.exit28
  %36 = load i32, ptr %0, align 4, !tbaa !4
  %37 = icmp sgt i32 %36, 1
  br i1 %37, label %38, label %40, !prof !9

38:                                               ; preds = %35
  %39 = add nsw i32 %36, -1
  store i32 %39, ptr %0, align 4, !tbaa !4
  br label %lean_dec.exit

40:                                               ; preds = %35
  %.not.i32 = icmp eq i32 %36, 0
  br i1 %.not.i32, label %lean_dec.exit, label %41

41:                                               ; preds = %40
  tail call void @lean_dec_ref_cold(ptr noundef nonnull %0) #6
  br label %lean_dec.exit

lean_dec.exit:                                    ; preds = %41, %40, %38, %lean_dec.exit28
  tail call void @lean_inc_heartbeat() #6
  %42 = tail call noalias ptr @mi_malloc_small(i64 noundef 24) #6
  %43 = icmp eq ptr %42, null
  br i1 %43, label %44, label %lean_alloc_ctor.exit

44:                                               ; preds = %lean_dec.exit
  tail call void @lean_internal_panic_out_of_memory() #7
  unreachable

lean_alloc_ctor.exit:                             ; preds = %lean_dec.exit
  %45 = getelementptr inbounds nuw i8, ptr %42, i64 4
  store i32 1, ptr %42, align 4, !tbaa !4
  store i32 131096, ptr %45, align 4
  %46 = getelementptr inbounds nuw i8, ptr %42, i64 8
  store ptr %2, ptr %46, align 8, !tbaa !10
  %47 = getelementptr inbounds nuw i8, ptr %42, i64 16
  store ptr %3, ptr %47, align 8, !tbaa !10
  tail call void @lean_inc_heartbeat() #6
  %48 = tail call noalias ptr @mi_malloc_small(i64 noundef 16) #6
  %49 = icmp eq ptr %48, null
  br i1 %49, label %50, label %lean_alloc_ctor.exit34

50:                                               ; preds = %lean_alloc_ctor.exit
  tail call void @lean_internal_panic_out_of_memory() #7
  unreachable

lean_alloc_ctor.exit34:                           ; preds = %lean_alloc_ctor.exit
  %51 = getelementptr inbounds nuw i8, ptr %48, i64 4
  store i32 1, ptr %48, align 4, !tbaa !4
  store i32 65552, ptr %51, align 4
  %52 = getelementptr inbounds nuw i8, ptr %48, i64 8
  store ptr %42, ptr %52, align 8, !tbaa !10
  tail call void @lean_inc_heartbeat() #6
  %53 = tail call noalias ptr @mi_malloc_small(i64 noundef 24) #6
  %54 = icmp eq ptr %53, null
  br i1 %54, label %55, label %lean_alloc_ctor.exit35

55:                                               ; preds = %lean_alloc_ctor.exit34
  tail call void @lean_internal_panic_out_of_memory() #7
  unreachable

lean_alloc_ctor.exit35:                           ; preds = %lean_alloc_ctor.exit34
  %56 = getelementptr inbounds nuw i8, ptr %53, i64 4
  store i32 1, ptr %53, align 4, !tbaa !4
  store i32 131096, ptr %56, align 4
  %57 = getelementptr inbounds nuw i8, ptr %53, i64 8
  store ptr %48, ptr %57, align 8, !tbaa !10
  %58 = getelementptr inbounds nuw i8, ptr %53, i64 16
  store ptr %9, ptr %58, align 8, !tbaa !10
  br label %61

59:                                               ; preds = %lean_dec.exit29
  %60 = tail call ptr @l_Array_forIn_x27Unsafe_loop___at___private_Lean_Elab_Inductive_0__Lean_Elab_Command_reorderCtorArgs___spec__4___lambda__4(ptr noundef %0, ptr noundef %1, ptr noundef %2, ptr noundef %3, ptr nonnull poison, ptr poison, ptr noundef %6, ptr poison, ptr poison, ptr noundef %9)
  br label %61

61:                                               ; preds = %59, %lean_alloc_ctor.exit35
  %.0 = phi ptr [ %53, %lean_alloc_ctor.exit35 ], [ %60, %59 ]
  ret ptr %.0
}